; Function Attrs: mustprogress uwtable
define internal fastcc void @"_ZSt21__inplace_stable_sortIN9__gnu_cxx17__normal_iteratorIPN3ue211hwlmLiteralESt6vectorIS3_SaIS3_EEEENS0_5__ops15_Iter_comp_iterIZNS2_12_GLOBAL__N_122assignStringsToBucketsERS7_RKNS2_20FDREngineDescriptionEE3$_0EEEvT_SI_T0_"(ptr %__first.coerce, ptr %__last.coerce) unnamed_addr #0 {
entry:
  %sub.ptr.lhs.cast.i = ptrtoint ptr %__last.coerce to i64
  %sub.ptr.rhs.cast.i = ptrtoint ptr %__first.coerce to i64
  %sub.ptr.sub.i = sub i64 %sub.ptr.lhs.cast.i, %sub.ptr.rhs.cast.i
  %cmp = icmp slt i64 %sub.ptr.sub.i, 1560
  br i1 %cmp, label %if.then, label %if.end

if.then:                                          ; preds = %entry
  tail call fastcc void @"_ZSt16__insertion_sortIN9__gnu_cxx17__normal_iteratorIPN3ue211hwlmLiteralESt6vectorIS3_SaIS3_EEEENS0_5__ops15_Iter_comp_iterIZNS2_12_GLOBAL__N_122assignStringsToBucketsERS7_RKNS2_20FDREngineDescriptionEE3$_0EEEvT_SI_T0_"(ptr %__first.coerce, ptr %__last.coerce)
  br label %common.ret24

common.ret24:                                     ; preds = %if.end, %if.then
  ret void

if.end:                                           ; preds = %entry
  %sub.ptr.div.i = udiv exact i64 %sub.ptr.sub.i, 104
  %div2223 = lshr i64 %sub.ptr.div.i, 1
  %add.ptr.i = getelementptr inbounds %"struct.ue2::hwlmLiteral", ptr %__first.coerce, i64 %div2223
  tail call fastcc void @"_ZSt21__inplace_stable_sortIN9__gnu_cxx17__normal_iteratorIPN3ue211hwlmLiteralESt6vectorIS3_SaIS3_EEEENS0_5__ops15_Iter_comp_iterIZNS2_12_GLOBAL__N_122assignStringsToBucketsERS7_RKNS2_20FDREngineDescriptionEE3$_0EEEvT_SI_T0_"(ptr %__first.coerce, ptr %add.ptr.i)
  tail call fastcc void @"_ZSt21__inplace_stable_sortIN9__gnu_cxx17__normal_iteratorIPN3ue211hwlmLiteralESt6vectorIS3_SaIS3_EEEENS0_5__ops15_Iter_comp_iterIZNS2_12_GLOBAL__N_122assignStringsToBucketsERS7_RKNS2_20FDREngineDescriptionEE3$_0EEEvT_SI_T0_"(ptr %add.ptr.i, ptr %__last.coerce)
  %sub.ptr.lhs.cast.i8 = ptrtoint ptr %add.ptr.i to i64
  %sub.ptr.sub.i14 = sub i64 %sub.ptr.lhs.cast.i, %sub.ptr.lhs.cast.i8
  %sub.ptr.div.i15 = sdiv exact i64 %sub.ptr.sub.i14, 104
  tail call fastcc void @"_ZSt22__merge_without_bufferIN9__gnu_cxx17__normal_iteratorIPN3ue211hwlmLiteralESt6vectorIS3_SaIS3_EEEElNS0_5__ops15_Iter_comp_iterIZNS2_12_GLOBAL__N_122assignStringsToBucketsERS7_RKNS2_20FDREngineDescriptionEE3$_0EEEvT_SI_SI_T0_SJ_T1_"(ptr %__first.coerce, ptr %add.ptr.i, ptr %__last.coerce, i64 noundef %div2223, i64 noundef %sub.ptr.div.i15)
  br label %common.ret24
}